; ModuleID = '38/544.c'
source_filename = "38/544.c"
target datalayout = "e-m:e-p270:32:32-p271:32:32-p272:64:64-i64:64-f80:128-n8:16:32:64-S128"
target triple = "x86_64-pc-linux-gnu"

@.str = private unnamed_addr constant [3 x i8] c"%d\00", align 1
@.str.1 = private unnamed_addr constant [4 x i8] c"%lf\00", align 1
@.str.2 = private unnamed_addr constant [7 x i8] c"%.5lf\0A\00", align 1

; Function Attrs: noinline nounwind uwtable
define dso_local i32 @main() #0 {
  %1 = alloca i32, align 4
  %2 = alloca i32, align 4
  %3 = alloca i32, align 4
  %4 = alloca i32, align 4
  %5 = alloca [1000 x double], align 16
  %6 = alloca [1000 x double], align 16
  %7 = alloca i32, align 4
  %8 = alloca double, align 8
  %9 = alloca double, align 8
  %10 = alloca double, align 8
  %11 = alloca double, align 8
  store i32 0, i32* %1, align 4
  %12 = call i32 (i8*, ...) @__isoc99_scanf(i8* getelementptr inbounds ([3 x i8], [3 x i8]* @.str, i64 0, i64 0), i32* %2)
  store i32 0, i32* %3, align 4
  br label %13

13:                                               ; preds = %83, %0
  %14 = load i32, i32* %3, align 4
  %15 = load i32, i32* %2, align 4
  %16 = icmp slt i32 %14, %15
  br i1 %16, label %17, label %86

17:                                               ; preds = %13
  %18 = call i32 (i8*, ...) @__isoc99_scanf(i8* getelementptr inbounds ([3 x i8], [3 x i8]* @.str, i64 0, i64 0), i32* %7)
  store double 0.000000e+00, double* %8, align 8
  store i32 0, i32* %4, align 4
  br label %19

19:                                               ; preds = %34, %17
  %20 = load i32, i32* %4, align 4
  %21 = load i32, i32* %7, align 4
  %22 = icmp slt i32 %20, %21
  br i1 %22, label %23, label %37

23:                                               ; preds = %19
  %24 = load i32, i32* %4, align 4
  %25 = sext i32 %24 to i64
  %26 = getelementptr inbounds [1000 x double], [1000 x double]* %5, i64 0, i64 %25
  %27 = call i32 (i8*, ...) @__isoc99_scanf(i8* getelementptr inbounds ([4 x i8], [4 x i8]* @.str.1, i64 0, i64 0), double* %26)
  %28 = load i32, i32* %4, align 4
  %29 = sext i32 %28 to i64
  %30 = getelementptr inbounds [1000 x double], [1000 x double]* %5, i64 0, i64 %29
  %31 = load double, double* %30, align 8
  %32 = load double, double* %8, align 8
  %33 = fadd double %32, %31
  store double %33, double* %8, align 8
  br label %34

34:                                               ; preds = %23
  %35 = load i32, i32* %4, align 4
  %36 = add nsw i32 %35, 1
  store i32 %36, i32* %4, align 4
  br label %19

37:                                               ; preds = %19
  store double 0.000000e+00, double* %9, align 8
  store double 0.000000e+00, double* %10, align 8
  %38 = load double, double* %8, align 8
  %39 = load i32, i32* %7, align 4
  %40 = sitofp i32 %39 to double
  %41 = fdiv double %38, %40
  %42 = load double, double* %9, align 8
  %43 = fadd double %42, %41
  store double %43, double* %9, align 8
  store i32 0, i32* %4, align 4
  br label %44

44:                                               ; preds = %71, %37
  %45 = load i32, i32* %4, align 4
  %46 = load i32, i32* %7, align 4
  %47 = icmp slt i32 %45, %46
  br i1 %47, label %48, label %74

48:                                               ; preds = %44
  %49 = load i32, i32* %4, align 4
  %50 = sext i32 %49 to i64
  %51 = getelementptr inbounds [1000 x double], [1000 x double]* %5, i64 0, i64 %50
  %52 = load double, double* %51, align 8
  %53 = load double, double* %9, align 8
  %54 = fsub double %52, %53
  %55 = load i32, i32* %4, align 4
  %56 = sext i32 %55 to i64
  %57 = getelementptr inbounds [1000 x double], [1000 x double]* %5, i64 0, i64 %56
  %58 = load double, double* %57, align 8
  %59 = load double, double* %9, align 8
  %60 = fsub double %58, %59
  %61 = fmul double %54, %60
  %62 = load i32, i32* %4, align 4
  %63 = sext i32 %62 to i64
  %64 = getelementptr inbounds [1000 x double], [1000 x double]* %6, i64 0, i64 %63
  store double %61, double* %64, align 8
  %65 = load i32, i32* %4, align 4
  %66 = sext i32 %65 to i64
  %67 = getelementptr inbounds [1000 x double], [1000 x double]* %6, i64 0, i64 %66
  %68 = load double, double* %67, align 8
  %69 = load double, double* %10, align 8
  %70 = fadd double %69, %68
  store double %70, double* %10, align 8
  br label %71

71:                                               ; preds = %48
  %72 = load i32, i32* %4, align 4
  %73 = add nsw i32 %72, 1
  store i32 %73, i32* %4, align 4
  br label %44

74:                                               ; preds = %44
  %75 = load i32, i32* %7, align 4
  %76 = sitofp i32 %75 to double
  %77 = load double, double* %10, align 8
  %78 = fdiv double %77, %76
  store double %78, double* %10, align 8
  store double 0.000000e+00, double* %11, align 8
  %79 = load double, double* %10, align 8
  %80 = call double @sqrt(double %79) #3
  store double %80, double* %11, align 8
  %81 = load double, double* %11, align 8
  %82 = call i32 (i8*, ...) @printf(i8* getelementptr inbounds ([7 x i8], [7 x i8]* @.str.2, i64 0, i64 0), double %81)
  br label %83

83:                                               ; preds = %74
  %84 = load i32, i32* %3, align 4
  %85 = add nsw i32 %84, 1
  store i32 %85, i32* %3, align 4
  br label %13

86:                                               ; preds = %13
  ret i32 0
}

declare dso_local i32 @__isoc99_scanf(i8*, ...) #1

; Function Attrs: nounwind
declare dso_local double @sqrt(double) #2

declare dso_local i32 @printf(i8*, ...) #1


!llvm.module.flags = !{!0}
!llvm.ident = !{!1}

!0 = !{i32 1, !"wchar_size", i32 4}
!1 = !{!"clang version 10.0.0-4ubuntu1 "}
